target datalayout = "e-m:e-p270:32:32-p271:32:32-p272:64:64-i64:64-i128:128-f80:128-n8:16:32:64-S128"
target triple = "x86_64-pc-linux-gnu"

%"class.std::vector.5" = type { %"struct.std::_Vector_base.6" }
%"struct.std::_Vector_base.6" = type { %"struct.std::_Vector_base<float, std::allocator<float>>::_Vector_impl" }
%"struct.std::_Vector_base<float, std::allocator<float>>::_Vector_impl" = type { %"struct.std::_Vector_base<float, std::allocator<float>>::_Vector_impl_data" }
%"struct.std::_Vector_base<float, std::allocator<float>>::_Vector_impl_data" = type { ptr, ptr, ptr }
%"struct.faiss::InvertedListScanner" = type { ptr, i64, i8, i8, ptr, i64 }
%"class.std::vector.30" = type { %"struct.std::_Vector_base.31" }
%"struct.std::_Vector_base.31" = type { %"struct.std::_Vector_base<unsigned char, std::allocator<unsigned char>>::_Vector_impl" }
%"struct.std::_Vector_base<unsigned char, std::allocator<unsigned char>>::_Vector_impl" = type { %"struct.std::_Vector_base<unsigned char, std::allocator<unsigned char>>::_Vector_impl_data" }
%"struct.std::_Vector_base<unsigned char, std::allocator<unsigned char>>::_Vector_impl_data" = type { ptr, ptr, ptr }
%"struct.faiss::(anonymous namespace)::IVFScanner.37" = type { %"struct.faiss::InvertedListScanner", ptr, i64, float, float, %"class.std::vector.5", %"class.std::vector.5", %"class.std::vector.30", %"struct.faiss::HammingComputer20" }
%"struct.faiss::HammingComputer20" = type <{ i64, i64, i32, [4 x i8] }>

; Function Attrs: mustprogress nounwind uwtable
define linkonce_odr noundef i32 @_ZN5faiss10popcount64Em(i64 noundef %0) #0 comdat {
  %2 = alloca i64, align 8
  store i64 %0, ptr %2, align 8
  %3 = load i64, ptr %2, align 8
  %4 = call i64 @llvm.ctpop.i64(i64 %3)
  %5 = trunc i64 %4 to i32
  ret i32 %5
}

; Function Attrs: mustprogress nounwind uwtable
define linkonce_odr noundef i64 @_ZN5faiss8lo_buildEmm(i64 noundef %0, i64 noundef %1) #0 comdat {
  %3 = alloca i64, align 8
  %4 = alloca i64, align 8
  store i64 %0, ptr %3, align 8
  store i64 %1, ptr %4, align 8
  %5 = load i64, ptr %3, align 8
  %6 = shl i64 %5, 32
  %7 = load i64, ptr %4, align 8
  %8 = or i64 %6, %7
  ret i64 %8
}

; Function Attrs: mustprogress nounwind uwtable
define linkonce_odr noundef i32 @_ZNK5faiss17HammingComputer207hammingEPKh(ptr noundef nonnull align 8 dereferenceable(20) %0, ptr noundef %1) #0 comdat align 2 {
  %3 = alloca ptr, align 8
  %4 = alloca ptr, align 8
  %5 = alloca ptr, align 8
  store ptr %0, ptr %3, align 8
  store ptr %1, ptr %4, align 8
  %6 = load ptr, ptr %3, align 8
  %7 = load ptr, ptr %4, align 8
  store ptr %7, ptr %5, align 8
  %8 = load ptr, ptr %5, align 8
  %9 = getelementptr inbounds i64, ptr %8, i64 0
  %10 = load i64, ptr %9, align 8
  %11 = getelementptr inbounds %"struct.faiss::HammingComputer20", ptr %6, i32 0, i32 0
  %12 = load i64, ptr %11, align 8
  %13 = xor i64 %10, %12
  %14 = call noundef i32 @_ZN5faiss10popcount64Em(i64 noundef %13)
  %15 = load ptr, ptr %5, align 8
  %16 = getelementptr inbounds i64, ptr %15, i64 1
  %17 = load i64, ptr %16, align 8
  %18 = getelementptr inbounds %"struct.faiss::HammingComputer20", ptr %6, i32 0, i32 1
  %19 = load i64, ptr %18, align 8
  %20 = xor i64 %17, %19
  %21 = call noundef i32 @_ZN5faiss10popcount64Em(i64 noundef %20)
  %22 = add nsw i32 %14, %21
  %23 = load ptr, ptr %5, align 8
  %24 = getelementptr inbounds i64, ptr %23, i64 2
  %25 = load i32, ptr %24, align 4
  %26 = getelementptr inbounds %"struct.faiss::HammingComputer20", ptr %6, i32 0, i32 2
  %27 = load i32, ptr %26, align 8
  %28 = xor i32 %25, %27
  %29 = zext i32 %28 to i64
  %30 = call noundef i32 @_ZN5faiss10popcount64Em(i64 noundef %29)
  %31 = add nsw i32 %22, %30
  ret i32 %31
}

; Function Attrs: mustprogress uwtable
define internal void @_ZNK5faiss12_GLOBAL__N_110IVFScannerINS_17HammingComputer20EE16scan_codes_rangeEmPKhPKlfRNS_16RangeQueryResultE(ptr noundef nonnull align 8 dereferenceable(160) %0, i64 noundef %1, ptr noundef %2, ptr noundef %3, float noundef %4, ptr noundef nonnull align 8 dereferenceable(24) %5) unnamed_addr #2 align 2 {
  %7 = alloca ptr, align 8
  %8 = alloca i64, align 8
  %9 = alloca ptr, align 8
  %10 = alloca ptr, align 8
  %11 = alloca float, align 4
  %12 = alloca ptr, align 8
  %13 = alloca i64, align 8
  %14 = alloca float, align 4
  %15 = alloca i64, align 8
  store ptr %0, ptr %7, align 8
  store i64 %1, ptr %8, align 8
  store ptr %2, ptr %9, align 8
  store ptr %3, ptr %10, align 8
  store float %4, ptr %11, align 4
  store ptr %5, ptr %12, align 8
  %16 = load ptr, ptr %7, align 8
  store i64 0, ptr %13, align 8
  br label %17

17:                                               ; preds = %53, %6
  %18 = load i64, ptr %13, align 8
  %19 = load i64, ptr %8, align 8
  %20 = icmp ult i64 %18, %19
  br i1 %20, label %21, label %56

21:                                               ; preds = %17
  %22 = getelementptr inbounds %"struct.faiss::(anonymous namespace)::IVFScanner.37", ptr %16, i32 0, i32 8
  %23 = load ptr, ptr %9, align 8
  %24 = call noundef i32 @_ZNK5faiss17HammingComputer207hammingEPKh(ptr noundef nonnull align 8 dereferenceable(20) %22, ptr noundef %23)
  %25 = sitofp i32 %24 to float
  store float %25, ptr %14, align 4
  %26 = load float, ptr %14, align 4
  %27 = load float, ptr %11, align 4
  %28 = fcmp olt float %26, %27
  br i1 %28, label %29, label %48

29:                                               ; preds = %21
  %30 = getelementptr inbounds %"struct.faiss::InvertedListScanner", ptr %16, i32 0, i32 3
  %31 = load i8, ptr %30, align 1
  %32 = trunc i8 %31 to i1
  br i1 %32, label %33, label %38

33:                                               ; preds = %29
  %34 = getelementptr inbounds %"struct.faiss::InvertedListScanner", ptr %16, i32 0, i32 1
  %35 = load i64, ptr %34, align 8
  %36 = load i64, ptr %13, align 8
  %37 = call noundef i64 @_ZN5faiss8lo_buildEmm(i64 noundef %35, i64 noundef %36)
  br label %43

38:                                               ; preds = %29
  %39 = load ptr, ptr %10, align 8
  %40 = load i64, ptr %13, align 8
  %41 = getelementptr inbounds i64, ptr %39, i64 %40
  %42 = load i64, ptr %41, align 8
  br label %43

43:                                               ; preds = %38, %33
  %44 = phi i64 [ %37, %33 ], [ %42, %38 ]
  store i64 %44, ptr %15, align 8
  %45 = load ptr, ptr %12, align 8
  %46 = load float, ptr %14, align 4
  %47 = load i64, ptr %15, align 8
  call void @_ZN5faiss16RangeQueryResult3addEfl(ptr noundef nonnull align 8 dereferenceable(24) %45, float noundef %46, i64 noundef %47)
  br label %48

48:                                               ; preds = %43, %21
  %49 = getelementptr inbounds %"struct.faiss::InvertedListScanner", ptr %16, i32 0, i32 5
  %50 = load i64, ptr %49, align 8
  %51 = load ptr, ptr %9, align 8
  %52 = getelementptr inbounds i8, ptr %51, i64 %50
  store ptr %52, ptr %9, align 8
  br label %53

53:                                               ; preds = %48
  %54 = load i64, ptr %13, align 8
  %55 = add i64 %54, 1
  store i64 %55, ptr %13, align 8
  br label %17, !llvm.loop !35

56:                                               ; preds = %17
  ret void
}